; Function Attrs: mustprogress uwtable
define noundef zeroext i1 @_ZN4pkpy8Compiler14match_end_stmtEv(ptr noundef nonnull align 8 captures(none) dereferenceable(200) %0) local_unnamed_addr #5 align 2 {
  br label %2

2:                                                ; preds = %17, %1
  %indvars.iv.i = phi i64 [ 0, %1 ], [ %indvars.iv.next.i, %17 ]
  %3 = getelementptr inbounds nuw [95 x ptr], ptr @_ZN4pkpyL7kTokensE, i64 0, i64 %indvars.iv.i
  %4 = load ptr, ptr %3, align 8
  %5 = load i8, ptr %4, align 1
  %.not20.i = icmp eq i8 %5, 0
  br i1 %.not20.i, label %.critedge.i, label %.lr.ph.i

.lr.ph.i:                                         ; preds = %2, %9
  %6 = phi i8 [ %12, %9 ], [ %5, %2 ]
  %.022.i = phi ptr [ %11, %9 ], [ @.str.59, %2 ]
  %.01321.i = phi ptr [ %10, %9 ], [ %4, %2 ]
  %7 = load i8, ptr %.022.i, align 1
  %8 = icmp eq i8 %6, %7
  br i1 %8, label %9, label %.critedge.i

9:                                                ; preds = %.lr.ph.i
  %10 = getelementptr inbounds nuw i8, ptr %.01321.i, i64 1
  %11 = getelementptr inbounds nuw i8, ptr %.022.i, i64 1
  %12 = load i8, ptr %10, align 1
  %.not.i = icmp eq i8 %12, 0
  br i1 %.not.i, label %.critedge.i, label %.lr.ph.i, !llvm.loop !15

.critedge.i:                                      ; preds = %9, %.lr.ph.i, %2
  %.0.lcssa.i = phi ptr [ @.str.59, %2 ], [ %11, %9 ], [ %.022.i, %.lr.ph.i ]
  %.lcssa.i = phi i8 [ 0, %2 ], [ 0, %9 ], [ %6, %.lr.ph.i ]
  %13 = load i8, ptr %.0.lcssa.i, align 1
  %14 = icmp eq i8 %.lcssa.i, %13
  br i1 %14, label %15, label %17

15:                                               ; preds = %.critedge.i
  %16 = trunc i64 %indvars.iv.i to i8
  br label %_ZN4pkpy2TKEPKc.exit

17:                                               ; preds = %.critedge.i
  %indvars.iv.next.i = add nuw nsw i64 %indvars.iv.i, 1
  %exitcond.not.i = icmp eq i64 %indvars.iv.next.i, 95
  br i1 %exitcond.not.i, label %_ZN4pkpy2TKEPKc.exit, label %2, !llvm.loop !16

_ZN4pkpy2TKEPKc.exit:                             ; preds = %17, %15
  %.015.i = phi i8 [ %16, %15 ], [ -1, %17 ]
  %18 = getelementptr inbounds nuw i8, ptr %0, i64 176
  %19 = getelementptr inbounds nuw i8, ptr %0, i64 172
  %20 = load i32, ptr %19, align 4
  %21 = sext i32 %20 to i64
  %22 = getelementptr inbounds nuw i8, ptr %0, i64 184
  %23 = load ptr, ptr %22, align 8
  %24 = load ptr, ptr %18, align 8
  %25 = ptrtoint ptr %23 to i64
  %26 = ptrtoint ptr %24 to i64
  %27 = sub i64 %25, %26
  %28 = sdiv exact i64 %27, 72
  %.not.i.i.i.i = icmp ugt i64 %28, %21
  br i1 %.not.i.i.i.i, label %_ZNK4pkpy8Compiler4currEv.exit.i, label %29

29:                                               ; preds = %_ZN4pkpy2TKEPKc.exit
  tail call void (ptr, ...) @_ZSt24__throw_out_of_range_fmtPKcz(ptr noundef nonnull @.str.106, i64 noundef %21, i64 noundef %28) #35
  unreachable

_ZNK4pkpy8Compiler4currEv.exit.i:                 ; preds = %_ZN4pkpy2TKEPKc.exit
  %30 = getelementptr inbounds %"struct.pkpy::Token", ptr %24, i64 %21
  %31 = load i8, ptr %30, align 8
  %.not.i2 = icmp eq i8 %31, %.015.i
  br i1 %.not.i2, label %32, label %_ZN4pkpy8Compiler5matchEh.exit

32:                                               ; preds = %_ZNK4pkpy8Compiler4currEv.exit.i
  %33 = add nsw i32 %20, 1
  store i32 %33, ptr %19, align 4
  %34 = tail call noundef zeroext i1 @_ZN4pkpy8Compiler14match_newlinesEb(ptr noundef nonnull align 8 dereferenceable(200) %0, i1 noundef zeroext false)
  br label %81

_ZN4pkpy8Compiler5matchEh.exit:                   ; preds = %_ZNK4pkpy8Compiler4currEv.exit.i
  %35 = tail call noundef zeroext i1 @_ZN4pkpy8Compiler14match_newlinesEb(ptr noundef nonnull align 8 dereferenceable(200) %0, i1 noundef zeroext false)
  br i1 %35, label %81, label %36

36:                                               ; preds = %_ZN4pkpy8Compiler5matchEh.exit
  %37 = load i32, ptr %19, align 4
  %38 = sext i32 %37 to i64
  %39 = load ptr, ptr %22, align 8
  %40 = load ptr, ptr %18, align 8
  %41 = ptrtoint ptr %39 to i64
  %42 = ptrtoint ptr %40 to i64
  %43 = sub i64 %41, %42
  %44 = sdiv exact i64 %43, 72
  %.not.i.i.i = icmp ugt i64 %44, %38
  br i1 %.not.i.i.i, label %_ZNK4pkpy8Compiler4currEv.exit, label %45

45:                                               ; preds = %36
  tail call void (ptr, ...) @_ZSt24__throw_out_of_range_fmtPKcz(ptr noundef nonnull @.str.106, i64 noundef %38, i64 noundef %44) #35
  unreachable

_ZNK4pkpy8Compiler4currEv.exit:                   ; preds = %36
  %46 = getelementptr inbounds %"struct.pkpy::Token", ptr %40, i64 %38
  %47 = load i8, ptr %46, align 8
  br label %48

48:                                               ; preds = %63, %_ZNK4pkpy8Compiler4currEv.exit
  %indvars.iv.i3 = phi i64 [ 0, %_ZNK4pkpy8Compiler4currEv.exit ], [ %indvars.iv.next.i11, %63 ]
  %49 = getelementptr inbounds nuw [95 x ptr], ptr @_ZN4pkpyL7kTokensE, i64 0, i64 %indvars.iv.i3
  %50 = load ptr, ptr %49, align 8
  %51 = load i8, ptr %50, align 1
  %.not20.i4 = icmp eq i8 %51, 0
  br i1 %.not20.i4, label %.critedge.i8, label %.lr.ph.i5

.lr.ph.i5:                                        ; preds = %48, %55
  %52 = phi i8 [ %58, %55 ], [ %51, %48 ]
  %.022.i6 = phi ptr [ %57, %55 ], [ @.str.4, %48 ]
  %.01321.i7 = phi ptr [ %56, %55 ], [ %50, %48 ]
  %53 = load i8, ptr %.022.i6, align 1
  %54 = icmp eq i8 %52, %53
  br i1 %54, label %55, label %.critedge.i8

55:                                               ; preds = %.lr.ph.i5
  %56 = getelementptr inbounds nuw i8, ptr %.01321.i7, i64 1
  %57 = getelementptr inbounds nuw i8, ptr %.022.i6, i64 1
  %58 = load i8, ptr %56, align 1
  %.not.i14 = icmp eq i8 %58, 0
  br i1 %.not.i14, label %.critedge.i8, label %.lr.ph.i5, !llvm.loop !15

.critedge.i8:                                     ; preds = %55, %.lr.ph.i5, %48
  %.0.lcssa.i9 = phi ptr [ @.str.4, %48 ], [ %57, %55 ], [ %.022.i6, %.lr.ph.i5 ]
  %.lcssa.i10 = phi i8 [ 0, %48 ], [ 0, %55 ], [ %52, %.lr.ph.i5 ]
  %59 = load i8, ptr %.0.lcssa.i9, align 1
  %60 = icmp eq i8 %.lcssa.i10, %59
  br i1 %60, label %61, label %63

61:                                               ; preds = %.critedge.i8
  %62 = trunc i64 %indvars.iv.i3 to i8
  br label %_ZN4pkpy2TKEPKc.exit15

63:                                               ; preds = %.critedge.i8
  %indvars.iv.next.i11 = add nuw nsw i64 %indvars.iv.i3, 1
  %exitcond.not.i12 = icmp eq i64 %indvars.iv.next.i11, 95
  br i1 %exitcond.not.i12, label %_ZN4pkpy2TKEPKc.exit15, label %48, !llvm.loop !16

_ZN4pkpy2TKEPKc.exit15:                           ; preds = %63, %61
  %.015.i13 = phi i8 [ %62, %61 ], [ -1, %63 ]
  %64 = icmp eq i8 %47, %.015.i13
  br i1 %64, label %81, label %_ZNK4pkpy8Compiler4currEv.exit17

_ZNK4pkpy8Compiler4currEv.exit17:                 ; preds = %_ZN4pkpy2TKEPKc.exit15, %79
  %indvars.iv.i18 = phi i64 [ %indvars.iv.next.i26, %79 ], [ 0, %_ZN4pkpy2TKEPKc.exit15 ]
  %65 = getelementptr inbounds nuw [95 x ptr], ptr @_ZN4pkpyL7kTokensE, i64 0, i64 %indvars.iv.i18
  %66 = load ptr, ptr %65, align 8
  %67 = load i8, ptr %66, align 1
  %.not20.i19 = icmp eq i8 %67, 0
  br i1 %.not20.i19, label %.critedge.i23, label %.lr.ph.i20

.lr.ph.i20:                                       ; preds = %_ZNK4pkpy8Compiler4currEv.exit17, %71
  %68 = phi i8 [ %74, %71 ], [ %67, %_ZNK4pkpy8Compiler4currEv.exit17 ]
  %.022.i21 = phi ptr [ %73, %71 ], [ @.str.3, %_ZNK4pkpy8Compiler4currEv.exit17 ]
  %.01321.i22 = phi ptr [ %72, %71 ], [ %66, %_ZNK4pkpy8Compiler4currEv.exit17 ]
  %69 = load i8, ptr %.022.i21, align 1
  %70 = icmp eq i8 %68, %69
  br i1 %70, label %71, label %.critedge.i23

71:                                               ; preds = %.lr.ph.i20
  %72 = getelementptr inbounds nuw i8, ptr %.01321.i22, i64 1
  %73 = getelementptr inbounds nuw i8, ptr %.022.i21, i64 1
  %74 = load i8, ptr %72, align 1
  %.not.i29 = icmp eq i8 %74, 0
  br i1 %.not.i29, label %.critedge.i23, label %.lr.ph.i20, !llvm.loop !15

.critedge.i23:                                    ; preds = %71, %.lr.ph.i20, %_ZNK4pkpy8Compiler4currEv.exit17
  %.0.lcssa.i24 = phi ptr [ @.str.3, %_ZNK4pkpy8Compiler4currEv.exit17 ], [ %73, %71 ], [ %.022.i21, %.lr.ph.i20 ]
  %.lcssa.i25 = phi i8 [ 0, %_ZNK4pkpy8Compiler4currEv.exit17 ], [ 0, %71 ], [ %68, %.lr.ph.i20 ]
  %75 = load i8, ptr %.0.lcssa.i24, align 1
  %76 = icmp eq i8 %.lcssa.i25, %75
  br i1 %76, label %77, label %79

77:                                               ; preds = %.critedge.i23
  %78 = trunc i64 %indvars.iv.i18 to i8
  br label %_ZN4pkpy2TKEPKc.exit30

79:                                               ; preds = %.critedge.i23
  %indvars.iv.next.i26 = add nuw nsw i64 %indvars.iv.i18, 1
  %exitcond.not.i27 = icmp eq i64 %indvars.iv.next.i26, 95
  br i1 %exitcond.not.i27, label %_ZN4pkpy2TKEPKc.exit30, label %_ZNK4pkpy8Compiler4currEv.exit17, !llvm.loop !16

_ZN4pkpy2TKEPKc.exit30:                           ; preds = %79, %77
  %.015.i28 = phi i8 [ %78, %77 ], [ -1, %79 ]
  %80 = icmp eq i8 %47, %.015.i28
  br label %81

81:                                               ; preds = %_ZN4pkpy2TKEPKc.exit30, %_ZN4pkpy8Compiler5matchEh.exit, %_ZN4pkpy2TKEPKc.exit15, %32
  %.0 = phi i1 [ true, %32 ], [ true, %_ZN4pkpy2TKEPKc.exit15 ], [ true, %_ZN4pkpy8Compiler5matchEh.exit ], [ %80, %_ZN4pkpy2TKEPKc.exit30 ]
  ret i1 %.0
}